target datalayout = "e-m:e-p270:32:32-p271:32:32-p272:64:64-i64:64-i128:128-f80:128-n8:16:32:64-S128"
target triple = "x86_64-pc-linux-gnu"

%class.TaskTerminator = type { i32, ptr, [128 x i8], i32, [124 x i8], %class.Monitor, ptr }
%class.Monitor = type { %class.Mutex }
%class.Mutex = type { ptr, %class.PlatformMonitor, ptr }
%class.PlatformMonitor = type { %class.PlatformMutex, %union.pthread_cond_t }
%class.PlatformMutex = type { %union.pthread_mutex_t }
%union.pthread_mutex_t = type { %struct.__pthread_mutex_s }
%struct.__pthread_mutex_s = type { i32, i32, i32, i32, i32, i16, i16, %struct.__pthread_internal_list }
%struct.__pthread_internal_list = type { ptr, ptr }
%union.pthread_cond_t = type { %struct.__pthread_cond_s }
%struct.__pthread_cond_s = type { %union.__atomic_wide_counter, %union.__atomic_wide_counter, [2 x i32], [2 x i32], i32, i32, [2 x i32] }
%union.__atomic_wide_counter = type { i64 }

; Function Attrs: mustprogress nounwind uwtable
define hidden void @_ZN14TaskTerminator18prepare_for_returnEP6Threadm(ptr noundef nonnull align 8 dereferenceable(384) %0, ptr noundef %1, i64 noundef %2) #1 align 2 {
  %4 = alloca ptr, align 8
  %5 = alloca ptr, align 8
  %6 = alloca i64, align 8
  store ptr %0, ptr %4, align 8
  store ptr %1, ptr %5, align 8
  store i64 %2, ptr %6, align 8
  %7 = load ptr, ptr %4, align 8
  %8 = getelementptr inbounds %class.TaskTerminator, ptr %7, i32 0, i32 6
  %9 = load ptr, ptr %8, align 8
  %10 = load ptr, ptr %5, align 8
  %11 = icmp eq ptr %9, %10
  br i1 %11, label %12, label %14

12:                                               ; preds = %3
  %13 = getelementptr inbounds %class.TaskTerminator, ptr %7, i32 0, i32 6
  store ptr null, ptr %13, align 8
  br label %14

14:                                               ; preds = %12, %3
  %15 = load i64, ptr %6, align 8
  %16 = getelementptr inbounds %class.TaskTerminator, ptr %7, i32 0, i32 3
  %17 = load volatile i32, ptr %16, align 8
  %18 = sub i32 %17, 1
  %19 = zext i32 %18 to i64
  %20 = icmp uge i64 %15, %19
  br i1 %20, label %21, label %23

21:                                               ; preds = %14
  %22 = getelementptr inbounds %class.TaskTerminator, ptr %7, i32 0, i32 5
  call void @_ZN7Monitor10notify_allEv(ptr noundef nonnull align 8 dereferenceable(104) %22)
  br label %33

23:                                               ; preds = %14
  br label %24

24:                                               ; preds = %29, %23
  %25 = load i64, ptr %6, align 8
  %26 = icmp ugt i64 %25, 1
  br i1 %26, label %27, label %32

27:                                               ; preds = %24
  %28 = getelementptr inbounds %class.TaskTerminator, ptr %7, i32 0, i32 5
  call void @_ZN7Monitor6notifyEv(ptr noundef nonnull align 8 dereferenceable(104) %28)
  br label %29

29:                                               ; preds = %27
  %30 = load i64, ptr %6, align 8
  %31 = add i64 %30, -1
  store i64 %31, ptr %6, align 8
  br label %24, !llvm.loop !8

32:                                               ; preds = %24
  br label %33

33:                                               ; preds = %32, %21
  ret void
}