; Function Attrs: mustprogress nounwind uwtable
define hidden void @_ZN14TaskTerminator18prepare_for_returnEP6Threadm(ptr noundef nonnull align 8 dereferenceable(384) %0, ptr noundef readnone %1, i64 noundef %2) local_unnamed_addr #2 align 2 {
  %4 = getelementptr inbounds i8, ptr %0, i64 376
  %5 = load ptr, ptr %4, align 8
  %6 = icmp eq ptr %5, %1
  br i1 %6, label %7, label %8

7:                                                ; preds = %3
  store ptr null, ptr %4, align 8
  br label %8

8:                                                ; preds = %7, %3
  %9 = getelementptr inbounds i8, ptr %0, i64 144
  %10 = load volatile i32, ptr %9, align 8
  %11 = add i32 %10, -1
  %12 = zext i32 %11 to i64
  %.not = icmp ugt i64 %12, %2
  br i1 %.not, label %.preheader, label %15

.preheader:                                       ; preds = %8
  %13 = icmp ugt i64 %2, 1
  br i1 %13, label %.lr.ph, label %.loopexit

.lr.ph:                                           ; preds = %.preheader
  %14 = getelementptr inbounds i8, ptr %0, i64 272
  br label %17

15:                                               ; preds = %8
  %16 = getelementptr inbounds i8, ptr %0, i64 272
  tail call void @_ZN7Monitor10notify_allEv(ptr noundef nonnull align 8 dereferenceable(104) %16) #8
  br label %.loopexit

17:                                               ; preds = %.lr.ph, %17
  %.05 = phi i64 [ %2, %.lr.ph ], [ %18, %17 ]
  tail call void @_ZN7Monitor6notifyEv(ptr noundef nonnull align 8 dereferenceable(104) %14) #8
  %18 = add nsw i64 %.05, -1
  %19 = icmp ugt i64 %18, 1
  br i1 %19, label %17, label %.loopexit, !llvm.loop !8

.loopexit:                                        ; preds = %17, %.preheader, %15
  ret void
}